target datalayout = "e-m:e-p270:32:32-p271:32:32-p272:64:64-i64:64-i128:128-f80:128-n8:16:32:64-S128"
target triple = "x86_64-pc-linux-gnu"

%struct.AVFilterContext = type { ptr, ptr, ptr, ptr, ptr, i32, ptr, ptr, i32, ptr, ptr, i32, i32, ptr, ptr, ptr, ptr, i32, ptr, i32, i32 }
%struct.CrossfeedContext = type { ptr, double, double, double, double, double, i32, i32, double, double, double, double, double, double, double, double, i64, i32, ptr, [3 x ptr] }

; Function Attrs: cold nounwind optsize uwtable
define internal void @uninit(ptr noundef %0) #0 {
  %2 = alloca ptr, align 8
  %3 = alloca ptr, align 8
  %4 = alloca i32, align 4
  store ptr %0, ptr %2, align 8, !tbaa !4
  call void @llvm.lifetime.start.p0(i64 8, ptr %3) #8
  %5 = load ptr, ptr %2, align 8, !tbaa !4
  %6 = getelementptr inbounds nuw %struct.AVFilterContext, ptr %5, i32 0, i32 9
  %7 = load ptr, ptr %6, align 8, !tbaa !9
  store ptr %7, ptr %3, align 8, !tbaa !22
  %8 = load ptr, ptr %3, align 8, !tbaa !22
  %9 = getelementptr inbounds nuw %struct.CrossfeedContext, ptr %8, i32 0, i32 18
  call void @av_freep(ptr noundef %9)
  call void @llvm.lifetime.start.p0(i64 4, ptr %4) #8
  store i32 0, ptr %4, align 4, !tbaa !24
  br label %10

10:                                               ; preds = %20, %1
  %11 = load i32, ptr %4, align 4, !tbaa !24
  %12 = icmp slt i32 %11, 3
  br i1 %12, label %14, label %13

13:                                               ; preds = %10
  call void @llvm.lifetime.end.p0(i64 4, ptr %4) #8
  br label %23

14:                                               ; preds = %10
  %15 = load ptr, ptr %3, align 8, !tbaa !22
  %16 = getelementptr inbounds nuw %struct.CrossfeedContext, ptr %15, i32 0, i32 19
  %17 = load i32, ptr %4, align 4, !tbaa !24
  %18 = sext i32 %17 to i64
  %19 = getelementptr inbounds [3 x ptr], ptr %16, i64 0, i64 %18
  call void @av_freep(ptr noundef %19)
  br label %20

20:                                               ; preds = %14
  %21 = load i32, ptr %4, align 4, !tbaa !24
  %22 = add nsw i32 %21, 1
  store i32 %22, ptr %4, align 4, !tbaa !24
  br label %10, !llvm.loop !25

23:                                               ; preds = %13
  call void @llvm.lifetime.end.p0(i64 8, ptr %3) #8
  ret void
}